; Function Attrs: nounwind uwtable
define internal ptr @ResOwnerPrintTupleDesc(i64 noundef %0) #0 {
  %2 = inttoptr i64 %0 to ptr
  %3 = getelementptr inbounds nuw i8, ptr %2, i64 4
  %4 = load i32, ptr %3, align 4
  %5 = getelementptr inbounds nuw i8, ptr %2, i64 8
  %6 = load i32, ptr %5, align 8
  %7 = tail call ptr (ptr, ...) @psprintf(ptr noundef nonnull @.str.5, ptr noundef %2, i32 noundef %4, i32 noundef %6) #11
  ret ptr %7
}